; Function Attrs: mustprogress uwtable
define void @_ZNK32pxrInternal_v0_24__pxrReserved__8Usd_Clip14GetLayerIfOpenEv(ptr dead_on_unwind noalias writable sret(%"class.pxrInternal_v0_24__pxrReserved__::TfWeakPtr.1") align 8 captures(none) %0, ptr noundef nonnull align 8 dereferenceable(208) %1) local_unnamed_addr #0 align 2 {
  %3 = getelementptr inbounds nuw i8, ptr %1, i64 152
  %4 = load i8, ptr %3, align 8
  %5 = trunc i8 %4 to i1
  br i1 %5, label %7, label %6

6:                                                ; preds = %2
  tail call void @llvm.memset.p0.i64(ptr noundef nonnull align 8 dereferenceable(16) %0, i8 0, i64 16, i1 false)
  br label %8

7:                                                ; preds = %2
  tail call void @_ZNK32pxrInternal_v0_24__pxrReserved__8Usd_Clip8GetLayerEv(ptr dead_on_unwind writable sret(%"class.pxrInternal_v0_24__pxrReserved__::TfWeakPtr.1") align 8 %0, ptr noundef nonnull align 8 dereferenceable(208) %1)
  br label %8

8:                                                ; preds = %7, %6
  ret void
}